target datalayout = "e-m:e-p270:32:32-p271:32:32-p272:64:64-i64:64-i128:128-f80:128-n8:16:32:64-S128"
target triple = "x86_64-pc-linux-gnu"

%struct._generic_N_Vector = type { ptr, ptr, ptr }
%struct._N_VectorContent_Serial = type { i64, i32, ptr }
%struct._generic_SUNMatrix = type { ptr, ptr, ptr }
%struct._SUNMatrixContent_Dense = type { i64, i64, ptr, i64, ptr }

; Function Attrs: nounwind uwtable
define internal i32 @Jac1(double noundef %0, ptr noundef %1, ptr noundef %2, ptr noundef %3, ptr noundef %4, ptr noundef %5, ptr noundef %6, ptr noundef %7) #0 {
  %9 = alloca double, align 8
  %10 = alloca ptr, align 8
  %11 = alloca ptr, align 8
  %12 = alloca ptr, align 8
  %13 = alloca ptr, align 8
  %14 = alloca ptr, align 8
  %15 = alloca ptr, align 8
  %16 = alloca ptr, align 8
  %17 = alloca double, align 8
  %18 = alloca double, align 8
  store double %0, ptr %9, align 8, !tbaa !8
  store ptr %1, ptr %10, align 8, !tbaa !10
  store ptr %2, ptr %11, align 8, !tbaa !10
  store ptr %3, ptr %12, align 8, !tbaa !13
  store ptr %4, ptr %13, align 8, !tbaa !19
  store ptr %5, ptr %14, align 8, !tbaa !10
  store ptr %6, ptr %15, align 8, !tbaa !10
  store ptr %7, ptr %16, align 8, !tbaa !10
  call void @llvm.lifetime.start.p0(i64 8, ptr %17) #5
  call void @llvm.lifetime.start.p0(i64 8, ptr %18) #5
  %19 = load ptr, ptr %10, align 8, !tbaa !10
  %20 = getelementptr inbounds nuw %struct._generic_N_Vector, ptr %19, i32 0, i32 0
  %21 = load ptr, ptr %20, align 8, !tbaa !22
  %22 = getelementptr inbounds nuw %struct._N_VectorContent_Serial, ptr %21, i32 0, i32 2
  %23 = load ptr, ptr %22, align 8, !tbaa !25
  %24 = getelementptr inbounds double, ptr %23, i64 0
  %25 = load double, ptr %24, align 8, !tbaa !8
  store double %25, ptr %17, align 8, !tbaa !8
  %26 = load ptr, ptr %10, align 8, !tbaa !10
  %27 = getelementptr inbounds nuw %struct._generic_N_Vector, ptr %26, i32 0, i32 0
  %28 = load ptr, ptr %27, align 8, !tbaa !22
  %29 = getelementptr inbounds nuw %struct._N_VectorContent_Serial, ptr %28, i32 0, i32 2
  %30 = load ptr, ptr %29, align 8, !tbaa !25
  %31 = getelementptr inbounds double, ptr %30, i64 1
  %32 = load double, ptr %31, align 8, !tbaa !8
  store double %32, ptr %18, align 8, !tbaa !8
  %33 = load ptr, ptr %12, align 8, !tbaa !13
  %34 = getelementptr inbounds nuw %struct._generic_SUNMatrix, ptr %33, i32 0, i32 0
  %35 = load ptr, ptr %34, align 8, !tbaa !42
  %36 = getelementptr inbounds nuw %struct._SUNMatrixContent_Dense, ptr %35, i32 0, i32 4
  %37 = load ptr, ptr %36, align 8, !tbaa !45
  %38 = getelementptr inbounds ptr, ptr %37, i64 1
  %39 = load ptr, ptr %38, align 8, !tbaa !48
  %40 = getelementptr inbounds double, ptr %39, i64 0
  store double 1.000000e+00, ptr %40, align 8, !tbaa !8
  %41 = load double, ptr %17, align 8, !tbaa !8
  %42 = fmul double -6.000000e+00, %41
  %43 = load double, ptr %18, align 8, !tbaa !8
  %44 = call double @llvm.fmuladd.f64(double %42, double %43, double -1.000000e+00)
  %45 = load ptr, ptr %12, align 8, !tbaa !13
  %46 = getelementptr inbounds nuw %struct._generic_SUNMatrix, ptr %45, i32 0, i32 0
  %47 = load ptr, ptr %46, align 8, !tbaa !42
  %48 = getelementptr inbounds nuw %struct._SUNMatrixContent_Dense, ptr %47, i32 0, i32 4
  %49 = load ptr, ptr %48, align 8, !tbaa !45
  %50 = getelementptr inbounds ptr, ptr %49, i64 0
  %51 = load ptr, ptr %50, align 8, !tbaa !48
  %52 = getelementptr inbounds double, ptr %51, i64 1
  store double %44, ptr %52, align 8, !tbaa !8
  %53 = load double, ptr %17, align 8, !tbaa !8
  %54 = load double, ptr %17, align 8, !tbaa !8
  %55 = fneg double %53
  %56 = call double @llvm.fmuladd.f64(double %55, double %54, double 1.000000e+00)
  %57 = fmul double 3.000000e+00, %56
  %58 = load ptr, ptr %12, align 8, !tbaa !13
  %59 = getelementptr inbounds nuw %struct._generic_SUNMatrix, ptr %58, i32 0, i32 0
  %60 = load ptr, ptr %59, align 8, !tbaa !42
  %61 = getelementptr inbounds nuw %struct._SUNMatrixContent_Dense, ptr %60, i32 0, i32 4
  %62 = load ptr, ptr %61, align 8, !tbaa !45
  %63 = getelementptr inbounds ptr, ptr %62, i64 1
  %64 = load ptr, ptr %63, align 8, !tbaa !48
  %65 = getelementptr inbounds double, ptr %64, i64 1
  store double %57, ptr %65, align 8, !tbaa !8
  call void @llvm.lifetime.end.p0(i64 8, ptr %18) #5
  call void @llvm.lifetime.end.p0(i64 8, ptr %17) #5
  ret i32 0
}